target datalayout = "e-m:e-p270:32:32-p271:32:32-p272:64:64-i64:64-i128:128-f80:128-n8:16:32:64-S128"
target triple = "x86_64-pc-linux-gnu"

%struct.PyModuleDef = type { %struct.PyModuleDef_Base, ptr, ptr, i64, ptr, ptr, ptr, ptr, ptr }
%struct.PyModuleDef_Base = type { %struct._object, ptr, i64, ptr }
%struct._object = type { %union.anon, ptr }
%union.anon = type { i64 }
%struct._bz2_state = type { ptr, ptr }
%struct.bz_stream = type { ptr, i32, i32, i32, ptr, i32, i32, i32, ptr, ptr, ptr, ptr }
%struct._typeobject = type { %struct.PyVarObject, ptr, i64, i64, ptr, i64, ptr, ptr, ptr, ptr, ptr, ptr, ptr, ptr, ptr, ptr, ptr, ptr, ptr, i64, ptr, ptr, ptr, ptr, i64, ptr, ptr, ptr, ptr, ptr, ptr, ptr, ptr, ptr, i64, ptr, ptr, ptr, ptr, ptr, ptr, ptr, ptr, ptr, ptr, ptr, i32, ptr, ptr, i8, i16 }
%struct.PyVarObject = type { %struct._object, i64 }
%struct.anon = type { i32, i32 }
%struct.BZ2Decompressor = type { %struct._object, %struct.bz_stream, i8, ptr, i8, ptr, i64, i64, ptr }

@_bz2module = internal global %struct.PyModuleDef { %struct.PyModuleDef_Base { %struct._object { %union.anon { i64 552977039360 }, ptr null }, ptr null, i64 0, ptr null }, ptr @.str, ptr null, i64 16, ptr null, ptr @_bz2_slots, ptr @_bz2_traverse, ptr @_bz2_clear, ptr @_bz2_free }, align 8
@PyExc_MemoryError = external global ptr, align 8
@.str.20 = private unnamed_addr constant [24 x i8] c"Unable to allocate lock\00", align 1
@.str.33 = private unnamed_addr constant [16 x i8] c"BZ2Decompressor\00", align 1

; Function Attrs: alwaysinline nounwind uwtable
define internal i32 @_Py_IsImmortal(ptr noundef %0) #4 {
  %2 = alloca ptr, align 8
  store ptr %0, ptr %2, align 8, !tbaa !3
  %3 = load ptr, ptr %2, align 8, !tbaa !3
  %4 = getelementptr inbounds nuw %struct._object, ptr %3, i32 0, i32 0
  %5 = getelementptr inbounds nuw %struct.anon, ptr %4, i32 0, i32 0
  %6 = load i32, ptr %5, align 8, !tbaa !33
  %7 = icmp slt i32 %6, 0
  %8 = zext i1 %7 to i32
  ret i32 %8
}

; Function Attrs: alwaysinline nounwind uwtable
define internal void @Py_DECREF(ptr noundef %0) #4 {
  %2 = alloca ptr, align 8
  store ptr %0, ptr %2, align 8, !tbaa !3
  %3 = load ptr, ptr %2, align 8, !tbaa !3
  %4 = call i32 @_Py_IsImmortal(ptr noundef %3)
  %5 = icmp ne i32 %4, 0
  br i1 %5, label %6, label %7

6:                                                ; preds = %1
  br label %16

7:                                                ; preds = %1
  %8 = load ptr, ptr %2, align 8, !tbaa !3
  %9 = getelementptr inbounds nuw %struct._object, ptr %8, i32 0, i32 0
  %10 = getelementptr inbounds nuw %struct.anon, ptr %9, i32 0, i32 0
  %11 = load i32, ptr %10, align 8, !tbaa !33
  %12 = add i32 %11, -1
  store i32 %12, ptr %10, align 8, !tbaa !33
  %13 = icmp eq i32 %12, 0
  br i1 %13, label %14, label %16

14:                                               ; preds = %7
  %15 = load ptr, ptr %2, align 8, !tbaa !3
  call void @_Py_Dealloc(ptr noundef %15)
  br label %16

16:                                               ; preds = %6, %14, %7
  ret void
}

; Function Attrs: inlinehint nounwind uwtable
define internal ptr @get_module_state(ptr noundef %0) #3 {
  %2 = alloca ptr, align 8
  %3 = alloca ptr, align 8
  store ptr %0, ptr %2, align 8, !tbaa !3
  call void @llvm.lifetime.start.p0(i64 8, ptr %3) #7
  %4 = load ptr, ptr %2, align 8, !tbaa !3
  %5 = call ptr @PyModule_GetState(ptr noundef %4)
  store ptr %5, ptr %3, align 8, !tbaa !8
  %6 = load ptr, ptr %3, align 8, !tbaa !8
  call void @llvm.lifetime.end.p0(i64 8, ptr %3) #7
  ret ptr %6
}

; Function Attrs: nounwind uwtable
define internal ptr @_bz2_BZ2Decompressor_impl(ptr noundef %0) #0 {
  %2 = alloca ptr, align 8
  %3 = alloca ptr, align 8
  %4 = alloca ptr, align 8
  %5 = alloca i32, align 4
  %6 = alloca i32, align 4
  store ptr %0, ptr %3, align 8, !tbaa !17
  call void @llvm.lifetime.start.p0(i64 8, ptr %4) #7
  call void @llvm.lifetime.start.p0(i64 4, ptr %5) #7
  %7 = load ptr, ptr %3, align 8, !tbaa !17
  %8 = getelementptr inbounds nuw %struct._typeobject, ptr %7, i32 0, i32 36
  %9 = load ptr, ptr %8, align 8, !tbaa !62
  %10 = load ptr, ptr %3, align 8, !tbaa !17
  %11 = call ptr %9(ptr noundef %10, i64 noundef 0)
  store ptr %11, ptr %4, align 8, !tbaa !8
  %12 = load ptr, ptr %4, align 8, !tbaa !8
  %13 = icmp eq ptr %12, null
  br i1 %13, label %14, label %15

14:                                               ; preds = %1
  store ptr null, ptr %2, align 8
  store i32 1, ptr %6, align 4
  br label %55

15:                                               ; preds = %1
  %16 = call ptr @PyThread_allocate_lock()
  %17 = load ptr, ptr %4, align 8, !tbaa !8
  %18 = getelementptr inbounds nuw %struct.BZ2Decompressor, ptr %17, i32 0, i32 8
  store ptr %16, ptr %18, align 8, !tbaa !68
  %19 = load ptr, ptr %4, align 8, !tbaa !8
  %20 = getelementptr inbounds nuw %struct.BZ2Decompressor, ptr %19, i32 0, i32 8
  %21 = load ptr, ptr %20, align 8, !tbaa !68
  %22 = icmp eq ptr %21, null
  br i1 %22, label %23, label %26

23:                                               ; preds = %15
  %24 = load ptr, ptr %4, align 8, !tbaa !8
  call void @Py_DECREF(ptr noundef %24)
  %25 = load ptr, ptr @PyExc_MemoryError, align 8, !tbaa !3
  call void @PyErr_SetString(ptr noundef %25, ptr noundef @.str.20)
  store ptr null, ptr %2, align 8
  store i32 1, ptr %6, align 4
  br label %55

26:                                               ; preds = %15
  %27 = load ptr, ptr %4, align 8, !tbaa !8
  %28 = getelementptr inbounds nuw %struct.BZ2Decompressor, ptr %27, i32 0, i32 4
  store i8 1, ptr %28, align 8, !tbaa !73
  %29 = load ptr, ptr %4, align 8, !tbaa !8
  %30 = getelementptr inbounds nuw %struct.BZ2Decompressor, ptr %29, i32 0, i32 7
  store i64 0, ptr %30, align 8, !tbaa !72
  %31 = load ptr, ptr %4, align 8, !tbaa !8
  %32 = getelementptr inbounds nuw %struct.BZ2Decompressor, ptr %31, i32 0, i32 5
  store ptr null, ptr %32, align 8, !tbaa !66
  %33 = load ptr, ptr %4, align 8, !tbaa !8
  %34 = getelementptr inbounds nuw %struct.BZ2Decompressor, ptr %33, i32 0, i32 6
  store i64 0, ptr %34, align 8, !tbaa !71
  %35 = call ptr @PyBytes_FromStringAndSize(ptr noundef null, i64 noundef 0)
  %36 = load ptr, ptr %4, align 8, !tbaa !8
  %37 = getelementptr inbounds nuw %struct.BZ2Decompressor, ptr %36, i32 0, i32 3
  store ptr %35, ptr %37, align 8, !tbaa !74
  %38 = load ptr, ptr %4, align 8, !tbaa !8
  %39 = getelementptr inbounds nuw %struct.BZ2Decompressor, ptr %38, i32 0, i32 3
  %40 = load ptr, ptr %39, align 8, !tbaa !74
  %41 = icmp eq ptr %40, null
  br i1 %41, label %42, label %43

42:                                               ; preds = %26
  br label %53

43:                                               ; preds = %26
  %44 = load ptr, ptr %4, align 8, !tbaa !8
  %45 = getelementptr inbounds nuw %struct.BZ2Decompressor, ptr %44, i32 0, i32 1
  %46 = call i32 @BZ2_bzDecompressInit(ptr noundef %45, i32 noundef 0, i32 noundef 0)
  store i32 %46, ptr %5, align 4, !tbaa !12
  %47 = load i32, ptr %5, align 4, !tbaa !12
  %48 = call i32 @catch_bz2_error(i32 noundef %47)
  %49 = icmp ne i32 %48, 0
  br i1 %49, label %50, label %51

50:                                               ; preds = %43
  br label %53

51:                                               ; preds = %43
  %52 = load ptr, ptr %4, align 8, !tbaa !8
  store ptr %52, ptr %2, align 8
  store i32 1, ptr %6, align 4
  br label %55

53:                                               ; preds = %50, %42
  %54 = load ptr, ptr %4, align 8, !tbaa !8
  call void @Py_DECREF(ptr noundef %54)
  store ptr null, ptr %2, align 8
  store i32 1, ptr %6, align 4
  br label %55

55:                                               ; preds = %53, %51, %23, %14
  call void @llvm.lifetime.end.p0(i64 4, ptr %5) #7
  call void @llvm.lifetime.end.p0(i64 8, ptr %4) #7
  %56 = load ptr, ptr %2, align 8
  ret ptr %56
}

; Function Attrs: inlinehint nounwind uwtable
define internal ptr @find_module_state_by_def(ptr noundef %0) #3 {
  %2 = alloca ptr, align 8
  %3 = alloca ptr, align 8
  store ptr %0, ptr %2, align 8, !tbaa !17
  call void @llvm.lifetime.start.p0(i64 8, ptr %3) #7
  %4 = load ptr, ptr %2, align 8, !tbaa !17
  %5 = call ptr @PyType_GetModuleByDef(ptr noundef %4, ptr noundef @_bz2module)
  store ptr %5, ptr %3, align 8, !tbaa !3
  %6 = load ptr, ptr %3, align 8, !tbaa !3
  %7 = call ptr @get_module_state(ptr noundef %6)
  call void @llvm.lifetime.end.p0(i64 8, ptr %3) #7
  ret ptr %7
}

; Function Attrs: nounwind uwtable
define internal ptr @_bz2_BZ2Decompressor(ptr noundef %0, ptr noundef %1, ptr noundef %2) #0 {
  %4 = alloca ptr, align 8
  %5 = alloca ptr, align 8
  %6 = alloca ptr, align 8
  %7 = alloca ptr, align 8
  %8 = alloca ptr, align 8
  store ptr %0, ptr %4, align 8, !tbaa !17
  store ptr %1, ptr %5, align 8, !tbaa !3
  store ptr %2, ptr %6, align 8, !tbaa !3
  call void @llvm.lifetime.start.p0(i64 8, ptr %7) #7
  store ptr null, ptr %7, align 8, !tbaa !3
  call void @llvm.lifetime.start.p0(i64 8, ptr %8) #7
  %9 = load ptr, ptr %4, align 8, !tbaa !17
  %10 = call ptr @find_module_state_by_def(ptr noundef %9)
  %11 = getelementptr inbounds nuw %struct._bz2_state, ptr %10, i32 0, i32 1
  %12 = load ptr, ptr %11, align 8, !tbaa !14
  store ptr %12, ptr %8, align 8, !tbaa !17
  %13 = load ptr, ptr %4, align 8, !tbaa !17
  %14 = load ptr, ptr %8, align 8, !tbaa !17
  %15 = icmp eq ptr %13, %14
  br i1 %15, label %24, label %16

16:                                               ; preds = %3
  %17 = load ptr, ptr %4, align 8, !tbaa !17
  %18 = getelementptr inbounds nuw %struct._typeobject, ptr %17, i32 0, i32 35
  %19 = load ptr, ptr %18, align 8, !tbaa !31
  %20 = load ptr, ptr %8, align 8, !tbaa !17
  %21 = getelementptr inbounds nuw %struct._typeobject, ptr %20, i32 0, i32 35
  %22 = load ptr, ptr %21, align 8, !tbaa !31
  %23 = icmp eq ptr %19, %22
  br i1 %23, label %24, label %32

24:                                               ; preds = %16, %3
  %25 = load ptr, ptr %5, align 8, !tbaa !3
  %26 = icmp eq ptr %25, null
  br i1 %26, label %32, label %27

27:                                               ; preds = %24
  %28 = load ptr, ptr %5, align 8, !tbaa !3
  %29 = call i32 @_PyArg_NoPositional(ptr noundef @.str.33, ptr noundef %28)
  %30 = icmp ne i32 %29, 0
  br i1 %30, label %32, label %31

31:                                               ; preds = %27
  br label %55

32:                                               ; preds = %27, %24, %16
  %33 = load ptr, ptr %4, align 8, !tbaa !17
  %34 = load ptr, ptr %8, align 8, !tbaa !17
  %35 = icmp eq ptr %33, %34
  br i1 %35, label %44, label %36

36:                                               ; preds = %32
  %37 = load ptr, ptr %4, align 8, !tbaa !17
  %38 = getelementptr inbounds nuw %struct._typeobject, ptr %37, i32 0, i32 35
  %39 = load ptr, ptr %38, align 8, !tbaa !31
  %40 = load ptr, ptr %8, align 8, !tbaa !17
  %41 = getelementptr inbounds nuw %struct._typeobject, ptr %40, i32 0, i32 35
  %42 = load ptr, ptr %41, align 8, !tbaa !31
  %43 = icmp eq ptr %39, %42
  br i1 %43, label %44, label %52

44:                                               ; preds = %36, %32
  %45 = load ptr, ptr %6, align 8, !tbaa !3
  %46 = icmp eq ptr %45, null
  br i1 %46, label %52, label %47

47:                                               ; preds = %44
  %48 = load ptr, ptr %6, align 8, !tbaa !3
  %49 = call i32 @_PyArg_NoKeywords(ptr noundef @.str.33, ptr noundef %48)
  %50 = icmp ne i32 %49, 0
  br i1 %50, label %52, label %51

51:                                               ; preds = %47
  br label %55

52:                                               ; preds = %47, %44, %36
  %53 = load ptr, ptr %4, align 8, !tbaa !17
  %54 = call ptr @_bz2_BZ2Decompressor_impl(ptr noundef %53)
  store ptr %54, ptr %7, align 8, !tbaa !3
  br label %55

55:                                               ; preds = %52, %51, %31
  %56 = load ptr, ptr %7, align 8, !tbaa !3
  call void @llvm.lifetime.end.p0(i64 8, ptr %8) #7
  call void @llvm.lifetime.end.p0(i64 8, ptr %7) #7
  ret ptr %56
}