; Function Attrs: nounwind uwtable
define internal ptr @_bz2_BZ2Decompressor(ptr noundef %0, ptr noundef %1, ptr noundef %2) #0 {
  %4 = tail call ptr @PyType_GetModuleByDef(ptr noundef %0, ptr noundef nonnull @_bz2module) #7
  %5 = tail call ptr @PyModule_GetState(ptr noundef %4) #7
  %6 = getelementptr inbounds nuw i8, ptr %5, i64 8
  %7 = load ptr, ptr %6, align 8, !tbaa !9
  %8 = icmp eq ptr %0, %7
  br i1 %8, label %16, label %9

9:                                                ; preds = %3
  %10 = getelementptr inbounds nuw i8, ptr %0, i64 296
  %11 = load ptr, ptr %10, align 8, !tbaa !28
  %12 = getelementptr inbounds nuw i8, ptr %7, i64 296
  %13 = load ptr, ptr %12, align 8, !tbaa !28
  %14 = icmp ne ptr %11, %13
  %15 = icmp eq ptr %1, null
  %or.cond = or i1 %15, %14
  br i1 %or.cond, label %.thread23, label %.thread24

16:                                               ; preds = %3
  %.old1 = icmp eq ptr %1, null
  br i1 %.old1, label %.thread, label %17

17:                                               ; preds = %16
  %18 = tail call i32 @_PyArg_NoPositional(ptr noundef nonnull @.str.33, ptr noundef nonnull %1) #7
  %.not = icmp eq i32 %18, 0
  br i1 %.not, label %_bz2_BZ2Decompressor_impl.exit, label %.thread

.thread24:                                        ; preds = %9
  %19 = tail call i32 @_PyArg_NoPositional(ptr noundef nonnull @.str.33, ptr noundef nonnull %1) #7
  %.not25 = icmp eq i32 %19, 0
  br i1 %.not25, label %_bz2_BZ2Decompressor_impl.exit, label %.thread24..thread23_crit_edge

.thread24..thread23_crit_edge:                    ; preds = %.thread24
  %.pre = load ptr, ptr %10, align 8, !tbaa !28
  %.pre27 = load ptr, ptr %12, align 8, !tbaa !28
  br label %.thread23

.thread23:                                        ; preds = %.thread24..thread23_crit_edge, %9
  %20 = phi ptr [ %.pre27, %.thread24..thread23_crit_edge ], [ %13, %9 ]
  %21 = phi ptr [ %.pre, %.thread24..thread23_crit_edge ], [ %11, %9 ]
  %22 = icmp ne ptr %21, %20
  %23 = icmp eq ptr %2, null
  %or.cond4 = or i1 %23, %22
  br i1 %or.cond4, label %26, label %24

.thread:                                          ; preds = %16, %17
  %.old3 = icmp eq ptr %2, null
  br i1 %.old3, label %26, label %24

24:                                               ; preds = %.thread23, %.thread
  %25 = tail call i32 @_PyArg_NoKeywords(ptr noundef nonnull @.str.33, ptr noundef nonnull %2) #7
  %.not22 = icmp eq i32 %25, 0
  br i1 %.not22, label %_bz2_BZ2Decompressor_impl.exit, label %26

26:                                               ; preds = %24, %.thread, %.thread23
  %27 = getelementptr inbounds nuw i8, ptr %0, i64 304
  %28 = load ptr, ptr %27, align 8, !tbaa !31
  %29 = tail call ptr %28(ptr noundef %0, i64 noundef 0) #7
  %30 = icmp eq ptr %29, null
  br i1 %30, label %_bz2_BZ2Decompressor_impl.exit, label %31

31:                                               ; preds = %26
  %32 = tail call ptr @PyThread_allocate_lock() #7
  %33 = getelementptr inbounds nuw i8, ptr %29, i64 144
  store ptr %32, ptr %33, align 8, !tbaa !58
  %34 = icmp eq ptr %32, null
  br i1 %34, label %35, label %42

35:                                               ; preds = %31
  %36 = load i32, ptr %29, align 8, !tbaa !11
  %.not.i17.i = icmp sgt i32 %36, -1
  br i1 %.not.i17.i, label %37, label %Py_DECREF.exit18.i

37:                                               ; preds = %35
  %38 = add nsw i32 %36, -1
  store i32 %38, ptr %29, align 8, !tbaa !11
  %39 = icmp eq i32 %38, 0
  br i1 %39, label %40, label %Py_DECREF.exit18.i

40:                                               ; preds = %37
  tail call void @_Py_Dealloc(ptr noundef nonnull %29) #7
  br label %Py_DECREF.exit18.i

Py_DECREF.exit18.i:                               ; preds = %40, %37, %35
  %41 = load ptr, ptr @PyExc_MemoryError, align 8, !tbaa !30
  tail call void @PyErr_SetString(ptr noundef %41, ptr noundef nonnull @.str.20) #7
  br label %_bz2_BZ2Decompressor_impl.exit

42:                                               ; preds = %31
  %43 = getelementptr inbounds nuw i8, ptr %29, i64 112
  store i8 1, ptr %43, align 8, !tbaa !59
  %44 = getelementptr inbounds nuw i8, ptr %29, i64 120
  tail call void @llvm.memset.p0.i64(ptr noundef nonnull align 8 dereferenceable(24) %44, i8 0, i64 24, i1 false)
  %45 = tail call ptr @PyBytes_FromStringAndSize(ptr noundef null, i64 noundef 0) #7
  %46 = getelementptr inbounds nuw i8, ptr %29, i64 104
  store ptr %45, ptr %46, align 8, !tbaa !60
  %47 = icmp eq ptr %45, null
  br i1 %47, label %52, label %48

48:                                               ; preds = %42
  %49 = getelementptr inbounds nuw i8, ptr %29, i64 16
  %50 = tail call i32 @BZ2_bzDecompressInit(ptr noundef nonnull %49, i32 noundef 0, i32 noundef 0) #7
  %51 = tail call fastcc i32 @catch_bz2_error(i32 noundef %50)
  %.not.i = icmp eq i32 %51, 0
  br i1 %.not.i, label %_bz2_BZ2Decompressor_impl.exit, label %52

52:                                               ; preds = %48, %42
  %53 = load i32, ptr %29, align 8, !tbaa !11
  %.not.i.i = icmp sgt i32 %53, -1
  br i1 %.not.i.i, label %54, label %_bz2_BZ2Decompressor_impl.exit

54:                                               ; preds = %52
  %55 = add nsw i32 %53, -1
  store i32 %55, ptr %29, align 8, !tbaa !11
  %56 = icmp eq i32 %55, 0
  br i1 %56, label %57, label %_bz2_BZ2Decompressor_impl.exit

57:                                               ; preds = %54
  tail call void @_Py_Dealloc(ptr noundef nonnull %29) #7
  br label %_bz2_BZ2Decompressor_impl.exit

_bz2_BZ2Decompressor_impl.exit:                   ; preds = %57, %54, %52, %48, %Py_DECREF.exit18.i, %26, %.thread24, %24, %17
  %.0 = phi ptr [ null, %24 ], [ null, %17 ], [ null, %.thread24 ], [ null, %Py_DECREF.exit18.i ], [ null, %26 ], [ %29, %48 ], [ null, %52 ], [ null, %54 ], [ null, %57 ]
  ret ptr %.0
}